; Function Attrs: mustprogress uwtable
define noundef ptr @_ZNK6google8protobuf8internal14ZeroFieldsBase18_InternalSerializeEPhPNS0_2io19EpsCopyOutputStreamE(ptr nocapture noundef nonnull readonly align 8 dereferenceable(20) %this, ptr noundef %target, ptr noundef %stream) unnamed_addr #3 align 2 {
entry:
  %_internal_metadata_ = getelementptr inbounds i8, ptr %this, i64 8
  %0 = load i64, ptr %_internal_metadata_, align 8
  %and.i11 = and i64 %0, 1
  %tobool.i12.not = icmp eq i64 %and.i11, 0
  br i1 %tobool.i12.not, label %if.end, label %if.then.i

if.then.i:                                        ; preds = %entry
  %and.i = and i64 %0, -2
  %1 = inttoptr i64 %and.i to ptr
  %unknown_fields.i = getelementptr inbounds i8, ptr %1, i64 8
  %call4 = tail call noundef ptr @_ZN6google8protobuf8internal10WireFormat37InternalSerializeUnknownFieldsToArrayERKNS0_15UnknownFieldSetEPhPNS0_2io19EpsCopyOutputStreamE(ptr noundef nonnull align 8 dereferenceable(24) %unknown_fields.i, ptr noundef %target, ptr noundef %stream)
  br label %if.end

if.end:                                           ; preds = %if.then.i, %entry
  %target.addr.0 = phi ptr [ %call4, %if.then.i ], [ %target, %entry ]
  ret ptr %target.addr.0
}